; Function Attrs: mustprogress nofree norecurse nosync nounwind willreturn memory(readwrite, inaccessiblemem: none) uwtable
define void @Fraig_HashTableInsertF0(ptr noundef readonly captures(none) %0, ptr noundef initializes((64, 72)) %1) local_unnamed_addr #7 {
  %3 = getelementptr inbounds nuw i8, ptr %0, i64 64
  %4 = load ptr, ptr %3, align 8, !tbaa !53
  %5 = getelementptr inbounds nuw i8, ptr %1, i64 100
  %6 = load i32, ptr %5, align 4, !tbaa !45
  %7 = getelementptr inbounds nuw i8, ptr %4, i64 8
  %8 = load i32, ptr %7, align 8, !tbaa !6
  %9 = urem i32 %6, %8
  %10 = load ptr, ptr %4, align 8, !tbaa !13
  %11 = zext i32 %9 to i64
  %12 = getelementptr inbounds nuw ptr, ptr %10, i64 %11
  %13 = load ptr, ptr %12, align 8, !tbaa !29
  %14 = getelementptr inbounds nuw i8, ptr %1, i64 64
  store ptr %13, ptr %14, align 8, !tbaa !50
  store ptr %1, ptr %12, align 8, !tbaa !29
  %15 = getelementptr inbounds nuw i8, ptr %4, i64 12
  %16 = load i32, ptr %15, align 4, !tbaa !33
  %17 = add nsw i32 %16, 1
  store i32 %17, ptr %15, align 4, !tbaa !33
  ret void
}